; Function Attrs: inlinehint mustprogress nounwind uwtable
define internal void @_ZN9grpc_core12_GLOBAL__N_16GrpcLb10ServerlistD2Ev(ptr noundef nonnull readonly align 8 captures(none) dereferenceable(48) %0) unnamed_addr #16 align 2 personality ptr @__gxx_personality_v0 {
  %2 = getelementptr inbounds nuw i8, ptr %0, i64 16
  %3 = load ptr, ptr %2, align 8, !tbaa !351
  %.not.i.i.i = icmp eq ptr %3, null
  br i1 %.not.i.i.i, label %_ZNSt6vectorIN9grpc_core12GrpcLbServerESaIS1_EED2Ev.exit, label %4

4:                                                ; preds = %1
  %5 = getelementptr inbounds nuw i8, ptr %0, i64 32
  %6 = load ptr, ptr %5, align 8, !tbaa !354
  %7 = ptrtoint ptr %6 to i64
  %8 = ptrtoint ptr %3 to i64
  %9 = sub i64 %7, %8
  tail call void @_ZdlPvm(ptr noundef nonnull %3, i64 noundef %9) #44
  br label %_ZNSt6vectorIN9grpc_core12GrpcLbServerESaIS1_EED2Ev.exit

_ZNSt6vectorIN9grpc_core12GrpcLbServerESaIS1_EED2Ev.exit: ; preds = %1, %4
  ret void
}